; Function Attrs: mustprogress uwtable
define hidden noundef i32 @_ZN14arith_rewriter12reduce_powerEP4exprS1_NS_7op_kindER7obj_refIS0_11ast_managerE(ptr noundef nonnull align 8 dereferenceable(96) %this, ptr noundef %arg1, ptr noundef %arg2, i32 noundef %kind, ptr nocapture noundef nonnull align 8 dereferenceable(16) %result) local_unnamed_addr #3 align 2 {
entry:
  %cmp = icmp eq i32 %kind, 2
  %call = tail call noundef ptr @_ZN14arith_rewriter12reduce_powerEP4exprb(ptr noundef nonnull align 8 dereferenceable(96) %this, ptr noundef %arg1, i1 noundef zeroext %cmp)
  %call3 = tail call noundef ptr @_ZN14arith_rewriter12reduce_powerEP4exprb(ptr noundef nonnull align 8 dereferenceable(96) %this, ptr noundef %arg2, i1 noundef zeroext %cmp)
  switch i32 %kind, label %sw.default [
    i32 0, label %sw.bb
    i32 1, label %sw.bb6
  ]

sw.bb:                                            ; preds = %entry
  %m_util = getelementptr inbounds i8, ptr %this, i64 8
  %0 = load ptr, ptr %m_util, align 8
  %call.i = tail call noundef ptr @_ZN11ast_manager6mk_appEiiP4exprS1_(ptr noundef nonnull align 8 dereferenceable(976) %0, i32 noundef 5, i32 noundef 2, ptr noundef %call, ptr noundef %call3)
  %tobool.not.i = icmp eq ptr %call.i, null
  br i1 %tobool.not.i, label %if.end.i, label %_ZN11ast_manager7inc_refEP3ast.exit.i

_ZN11ast_manager7inc_refEP3ast.exit.i:            ; preds = %sw.bb
  %m_ref_count.i.i.i = getelementptr inbounds i8, ptr %call.i, i64 8
  %1 = load i32, ptr %m_ref_count.i.i.i, align 4
  %inc.i.i.i = add i32 %1, 1
  store i32 %inc.i.i.i, ptr %m_ref_count.i.i.i, align 4
  br label %if.end.i

if.end.i:                                         ; preds = %_ZN11ast_manager7inc_refEP3ast.exit.i, %sw.bb
  %2 = load ptr, ptr %result, align 8
  %tobool.not.i3.i = icmp eq ptr %2, null
  br i1 %tobool.not.i3.i, label %return, label %if.then.i.i.i

if.then.i.i.i:                                    ; preds = %if.end.i
  %m_manager.i.i = getelementptr inbounds i8, ptr %result, i64 8
  %3 = load ptr, ptr %m_manager.i.i, align 8
  %m_ref_count.i.i.i.i = getelementptr inbounds i8, ptr %2, i64 8
  %4 = load i32, ptr %m_ref_count.i.i.i.i, align 4
  %dec.i.i.i.i = add i32 %4, -1
  store i32 %dec.i.i.i.i, ptr %m_ref_count.i.i.i.i, align 4
  %cmp.i.i.i = icmp eq i32 %dec.i.i.i.i, 0
  br i1 %cmp.i.i.i, label %if.then2.i.i.i, label %return

if.then2.i.i.i:                                   ; preds = %if.then.i.i.i
  tail call void @_ZN11ast_manager11delete_nodeEP3ast(ptr noundef nonnull align 8 dereferenceable(976) %3, ptr noundef nonnull %2)
  br label %return

sw.bb6:                                           ; preds = %entry
  %m_util7 = getelementptr inbounds i8, ptr %this, i64 8
  %5 = load ptr, ptr %m_util7, align 8
  %call.i9 = tail call noundef ptr @_ZN11ast_manager6mk_appEiiP4exprS1_(ptr noundef nonnull align 8 dereferenceable(976) %5, i32 noundef 5, i32 noundef 3, ptr noundef %call, ptr noundef %call3)
  %tobool.not.i10 = icmp eq ptr %call.i9, null
  br i1 %tobool.not.i10, label %if.end.i14, label %_ZN11ast_manager7inc_refEP3ast.exit.i11

_ZN11ast_manager7inc_refEP3ast.exit.i11:          ; preds = %sw.bb6
  %m_ref_count.i.i.i12 = getelementptr inbounds i8, ptr %call.i9, i64 8
  %6 = load i32, ptr %m_ref_count.i.i.i12, align 4
  %inc.i.i.i13 = add i32 %6, 1
  store i32 %inc.i.i.i13, ptr %m_ref_count.i.i.i12, align 4
  br label %if.end.i14

if.end.i14:                                       ; preds = %_ZN11ast_manager7inc_refEP3ast.exit.i11, %sw.bb6
  %7 = load ptr, ptr %result, align 8
  %tobool.not.i3.i15 = icmp eq ptr %7, null
  br i1 %tobool.not.i3.i15, label %return, label %if.then.i.i.i16

if.then.i.i.i16:                                  ; preds = %if.end.i14
  %m_manager.i.i17 = getelementptr inbounds i8, ptr %result, i64 8
  %8 = load ptr, ptr %m_manager.i.i17, align 8
  %m_ref_count.i.i.i.i18 = getelementptr inbounds i8, ptr %7, i64 8
  %9 = load i32, ptr %m_ref_count.i.i.i.i18, align 4
  %dec.i.i.i.i19 = add i32 %9, -1
  store i32 %dec.i.i.i.i19, ptr %m_ref_count.i.i.i.i18, align 4
  %cmp.i.i.i20 = icmp eq i32 %dec.i.i.i.i19, 0
  br i1 %cmp.i.i.i20, label %if.then2.i.i.i21, label %return

if.then2.i.i.i21:                                 ; preds = %if.then.i.i.i16
  tail call void @_ZN11ast_manager11delete_nodeEP3ast(ptr noundef nonnull align 8 dereferenceable(976) %8, ptr noundef nonnull %7)
  br label %return

sw.default:                                       ; preds = %entry
  %10 = load ptr, ptr %this, align 8
  %call2.i = tail call noundef ptr @_ZN11ast_manager6mk_appEiiP4exprS1_(ptr noundef nonnull align 8 dereferenceable(976) %10, i32 noundef 0, i32 noundef 2, ptr noundef %call, ptr noundef %call3)
  %tobool.not.i23 = icmp eq ptr %call2.i, null
  br i1 %tobool.not.i23, label %if.end.i27, label %_ZN11ast_manager7inc_refEP3ast.exit.i24

_ZN11ast_manager7inc_refEP3ast.exit.i24:          ; preds = %sw.default
  %m_ref_count.i.i.i25 = getelementptr inbounds i8, ptr %call2.i, i64 8
  %11 = load i32, ptr %m_ref_count.i.i.i25, align 4
  %inc.i.i.i26 = add i32 %11, 1
  store i32 %inc.i.i.i26, ptr %m_ref_count.i.i.i25, align 4
  br label %if.end.i27

if.end.i27:                                       ; preds = %_ZN11ast_manager7inc_refEP3ast.exit.i24, %sw.default
  %12 = load ptr, ptr %result, align 8
  %tobool.not.i3.i28 = icmp eq ptr %12, null
  br i1 %tobool.not.i3.i28, label %return, label %if.then.i.i.i29

if.then.i.i.i29:                                  ; preds = %if.end.i27
  %m_manager.i.i30 = getelementptr inbounds i8, ptr %result, i64 8
  %13 = load ptr, ptr %m_manager.i.i30, align 8
  %m_ref_count.i.i.i.i31 = getelementptr inbounds i8, ptr %12, i64 8
  %14 = load i32, ptr %m_ref_count.i.i.i.i31, align 4
  %dec.i.i.i.i32 = add i32 %14, -1
  store i32 %dec.i.i.i.i32, ptr %m_ref_count.i.i.i.i31, align 4
  %cmp.i.i.i33 = icmp eq i32 %dec.i.i.i.i32, 0
  br i1 %cmp.i.i.i33, label %if.then2.i.i.i34, label %return

if.then2.i.i.i34:                                 ; preds = %if.then.i.i.i29
  tail call void @_ZN11ast_manager11delete_nodeEP3ast(ptr noundef nonnull align 8 dereferenceable(976) %13, ptr noundef nonnull %12)
  br label %return

return:                                           ; preds = %if.then2.i.i.i34, %if.then.i.i.i29, %if.end.i27, %if.then2.i.i.i21, %if.then.i.i.i16, %if.end.i14, %if.then2.i.i.i, %if.then.i.i.i, %if.end.i
  %call2.i.sink = phi ptr [ %call.i, %if.end.i ], [ %call.i, %if.then.i.i.i ], [ %call.i, %if.then2.i.i.i ], [ %call.i9, %if.end.i14 ], [ %call.i9, %if.then.i.i.i16 ], [ %call.i9, %if.then2.i.i.i21 ], [ %call2.i, %if.end.i27 ], [ %call2.i, %if.then.i.i.i29 ], [ %call2.i, %if.then2.i.i.i34 ]
  store ptr %call2.i.sink, ptr %result, align 8
  ret i32 0
}